
build/OS.elf:     file format elf32-littlearm


Disassembly of section .text:

40000000 <_KERNEL_RAM_START>:
40000000:	40400000 	.word	0x40400000
40000004:	400003d5 	.word	0x400003d5
40000008:	400003ff 	.word	0x400003ff
4000000c:	40000401 	.word	0x40000401
40000010:	40000413 	.word	0x40000413
40000014:	40000413 	.word	0x40000413
40000018:	40000413 	.word	0x40000413
4000001c:	5d534f5b 	.word	0x5d534f5b
40000020:	6f6f4220 	.word	0x6f6f4220
40000024:	4b4f2074 	.word	0x4b4f2074
40000028:	304d2820 	.word	0x304d2820
4000002c:	6661732d 	.word	0x6661732d
40000030:	0a0d2965 	.word	0x0a0d2965
40000034:	32313000 	.word	0x32313000
40000038:	36353433 	.word	0x36353433
4000003c:	61393837 	.word	0x61393837
40000040:	65646362 	.word	0x65646362
40000044:	0a0d0066 	.word	0x0a0d0066
40000048:	5d534f5b 	.word	0x5d534f5b
4000004c:	52415520 	.word	0x52415520
40000050:	68732054 	.word	0x68732054
40000054:	206c6c65 	.word	0x206c6c65
40000058:	64616572 	.word	0x64616572
4000005c:	54202e79 	.word	0x54202e79
40000060:	20657079 	.word	0x20657079
40000064:	6c656827 	.word	0x6c656827
40000068:	0d2e2770 	.word	0x0d2e2770
4000006c:	736f000a 	.word	0x736f000a
40000070:	0800203e 	.word	0x0800203e
40000074:	68000820 	.word	0x68000820
40000078:	00706c65 	.word	0x00706c65
4000007c:	6d6d6f43 	.word	0x6d6d6f43
40000080:	73646e61 	.word	0x73646e61
40000084:	000a0d3a 	.word	0x000a0d3a
40000088:	65682020 	.word	0x65682020
4000008c:	2020706c 	.word	0x2020706c
40000090:	20202020 	.word	0x20202020
40000094:	20202020 	.word	0x20202020
40000098:	20202020 	.word	0x20202020
4000009c:	2d202020 	.word	0x2d202020
400000a0:	6f687320 	.word	0x6f687320
400000a4:	68742077 	.word	0x68742077
400000a8:	68207369 	.word	0x68207369
400000ac:	0d706c65 	.word	0x0d706c65
400000b0:	2020000a 	.word	0x2020000a
400000b4:	696d656d 	.word	0x696d656d
400000b8:	206f666e 	.word	0x206f666e
400000bc:	20202020 	.word	0x20202020
400000c0:	20202020 	.word	0x20202020
400000c4:	20202020 	.word	0x20202020
400000c8:	52202d20 	.word	0x52202d20
400000cc:	72204d41 	.word	0x72204d41
400000d0:	65676e61 	.word	0x65676e61
400000d4:	646e6120 	.word	0x646e6120
400000d8:	7a697320 	.word	0x7a697320
400000dc:	000a0d65 	.word	0x000a0d65
400000e0:	75722020 	.word	0x75722020
400000e4:	703c206e 	.word	0x703c206e
400000e8:	3e687461 	.word	0x3e687461
400000ec:	20202020 	.word	0x20202020
400000f0:	20202020 	.word	0x20202020
400000f4:	2d202020 	.word	0x2d202020
400000f8:	616f6c20 	.word	0x616f6c20
400000fc:	20262064 	.word	0x20262064
40000100:	706d756a 	.word	0x706d756a
40000104:	206f7420 	.word	0x206f7420
40000108:	67616d69 	.word	0x67616d69
4000010c:	000a0d65 	.word	0x000a0d65
40000110:	61732020 	.word	0x61732020
40000114:	3c206576 	.word	0x3c206576
40000118:	68746170 	.word	0x68746170
4000011c:	2020203e 	.word	0x2020203e
40000120:	20202020 	.word	0x20202020
40000124:	2d202020 	.word	0x2d202020
40000128:	616e7320 	.word	0x616e7320
4000012c:	6f687370 	.word	0x6f687370
40000130:	41522074 	.word	0x41522074
40000134:	6f74204d 	.word	0x6f74204d
40000138:	6c696620 	.word	0x6c696620
4000013c:	000a0d65 	.word	0x000a0d65
40000140:	6f6c2020 	.word	0x6f6c2020
40000144:	3c206461 	.word	0x3c206461
40000148:	68746170 	.word	0x68746170
4000014c:	2020203e 	.word	0x2020203e
40000150:	20202020 	.word	0x20202020
40000154:	2d202020 	.word	0x2d202020
40000158:	696c6120 	.word	0x696c6120
4000015c:	6f207361 	.word	0x6f207361
40000160:	75722066 	.word	0x75722066
40000164:	000a0d6e 	.word	0x000a0d6e
40000168:	696d656d 	.word	0x696d656d
4000016c:	006f666e 	.word	0x006f666e
40000170:	5f4d4152 	.word	0x5f4d4152
40000174:	45534142 	.word	0x45534142
40000178:	3278303d 	.word	0x3278303d
4000017c:	30303030 	.word	0x30303030
40000180:	0d303030 	.word	0x0d303030
40000184:	4152000a 	.word	0x4152000a
40000188:	49535f4d 	.word	0x49535f4d
4000018c:	363d455a 	.word	0x363d455a
40000190:	36333535 	.word	0x36333535
40000194:	74796220 	.word	0x74796220
40000198:	0a0d7365 	.word	0x0a0d7365
4000019c:	6e757200 	.word	0x6e757200
400001a0:	6f4c0020 	.word	0x6f4c0020
400001a4:	6e696461 	.word	0x6e696461
400001a8:	2e2e2e67 	.word	0x2e2e2e67
400001ac:	4c000a0d 	.word	0x4c000a0d
400001b0:	2064616f 	.word	0x2064616f
400001b4:	6c696166 	.word	0x6c696166
400001b8:	0d2e6465 	.word	0x0d2e6465
400001bc:	6f6c000a 	.word	0x6f6c000a
400001c0:	00206461 	.word	0x00206461
400001c4:	65766173 	.word	0x65766173
400001c8:	61530020 	.word	0x61530020
400001cc:	2e646576 	.word	0x2e646576
400001d0:	53000a0d 	.word	0x53000a0d
400001d4:	20657661 	.word	0x20657661
400001d8:	6c696166 	.word	0x6c696166
400001dc:	0d2e6465 	.word	0x0d2e6465
400001e0:	7865000a 	.word	0x7865000a
400001e4:	42007469 	.word	0x42007469
400001e8:	0d2e6579 	.word	0x0d2e6579
400001ec:	6e55000a 	.word	0x6e55000a
400001f0:	776f6e6b 	.word	0x776f6e6b
400001f4:	54202e6e 	.word	0x54202e6e
400001f8:	27207972 	.word	0x27207972
400001fc:	706c6568 	.word	0x706c6568
40000200:	0a0d2e27 	.word	0x0a0d2e27
40000204:	61777300 	.word	0x61777300
40000208:	6e695f70 	.word	0x6e695f70
4000020c:	0d4b4f20 	.word	0x0d4b4f20
40000210:	0a0d000a 	.word	0x0a0d000a
40000214:	202d2d2d 	.word	0x202d2d2d
40000218:	4f4d454d 	.word	0x4f4d454d
4000021c:	49205952 	.word	0x49205952
40000220:	4550534e 	.word	0x4550534e
40000224:	4f495443 	.word	0x4f495443
40000228:	5250204e 	.word	0x5250204e
4000022c:	554a2d45 	.word	0x554a2d45
40000230:	2d20504d 	.word	0x2d20504d
40000234:	0a0d2d2d 	.word	0x0a0d2d2d
40000238:	6d754400 	.word	0x6d754400
4000023c:	676e6970 	.word	0x676e6970
40000240:	746e6520 	.word	0x746e6520
40000244:	20657269 	.word	0x20657269
40000248:	69666564 	.word	0x69666564
4000024c:	2064656e 	.word	0x2064656e
40000250:	72657355 	.word	0x72657355
40000254:	61705320 	.word	0x61705320
40000258:	4d206563 	.word	0x4d206563
4000025c:	726f6d65 	.word	0x726f6d65
40000260:	0a0d3a79 	.word	0x0a0d3a79
40000264:	73614200 	.word	0x73614200
40000268:	64412065 	.word	0x64412065
4000026c:	73657264 	.word	0x73657264
40000270:	00203a73 	.word	0x00203a73
40000274:	657a6953 	.word	0x657a6953
40000278:	2020203a 	.word	0x2020203a
4000027c:	20202020 	.word	0x20202020
40000280:	20002020 	.word	0x20002020
40000284:	65747962 	.word	0x65747962
40000288:	0d0a0d73 	.word	0x0d0a0d73
4000028c:	6142000a 	.word	0x6142000a
40000290:	50532064 	.word	0x50532064
40000294:	4f4f2820 	.word	0x4f4f2820
40000298:	0a0d2942 	.word	0x0a0d2942
4000029c:	64614200 	.word	0x64614200
400002a0:	20435020 	.word	0x20435020
400002a4:	424f4f28 	.word	0x424f4f28
400002a8:	000a0d29 	.word	0x000a0d29
400002ac:	756f6241 	.word	0x756f6241
400002b0:	6f742074 	.word	0x6f742074
400002b4:	6d756a20 	.word	0x6d756a20
400002b8:	0a0d3a70 	.word	0x0a0d3a70
400002bc:	50532000 	.word	0x50532000
400002c0:	5020003d 	.word	0x5020003d
400002c4:	20003d43 	.word	0x20003d43
400002c8:	524f5456 	.word	0x524f5456
400002cc:	7061003d 	.word	0x7061003d
400002d0:	65722070 	.word	0x65722070
400002d4:	6e727574 	.word	0x6e727574
400002d8:	74206465 	.word	0x74206465
400002dc:	656b206f 	.word	0x656b206f
400002e0:	6c656e72 	.word	0x6c656e72
400002e4:	73000a0d 	.word	0x73000a0d
400002e8:	5f706177 	.word	0x5f706177
400002ec:	3a74756f 	.word	0x3a74756f
400002f0:	65706f20 	.word	0x65706f20
400002f4:	6166206e 	.word	0x6166206e
400002f8:	0a0d6c69 	.word	0x0a0d6c69
400002fc:	61777300 	.word	0x61777300
40000300:	6e695f70 	.word	0x6e695f70
40000304:	706f203a 	.word	0x706f203a
40000308:	6e696e65 	.word	0x6e696e65
4000030c:	00272067 	.word	0x00272067
40000310:	000a0d27 	.word	0x000a0d27
40000314:	70617773 	.word	0x70617773
40000318:	3a6e695f 	.word	0x3a6e695f
4000031c:	5f687320 	.word	0x5f687320
40000320:	6e65706f 	.word	0x6e65706f
40000324:	49414620 	.word	0x49414620
40000328:	0d44454c 	.word	0x0d44454c
4000032c:	7773000a 	.word	0x7773000a
40000330:	695f7061 	.word	0x695f7061
40000334:	66203a6e 	.word	0x66203a6e
40000338:	73003d64 	.word	0x73003d64
4000033c:	5f706177 	.word	0x5f706177
40000340:	203a6e69 	.word	0x203a6e69
40000344:	6e656c66 	.word	0x6e656c66
40000348:	7773003d 	.word	0x7773003d
4000034c:	695f7061 	.word	0x695f7061
40000350:	68203a6e 	.word	0x68203a6e
40000354:	65646165 	.word	0x65646165
40000358:	65722072 	.word	0x65722072
4000035c:	6e69616d 	.word	0x6e69616d
40000360:	6468003d 	.word	0x6468003d
40000364:	61722e72 	.word	0x61722e72
40000368:	69735f6d 	.word	0x69735f6d
4000036c:	003d657a 	.word	0x003d657a
40000370:	746e6520 	.word	0x746e6520
40000374:	003d7972 	.word	0x003d7972
40000378:	3d707320 	.word	0x3d707320
4000037c:	61777300 	.word	0x61777300
40000380:	6e695f70 	.word	0x6e695f70
40000384:	6f74203a 	.word	0x6f74203a
40000388:	6962206f 	.word	0x6962206f
4000038c:	000a0d67 	.word	0x000a0d67
40000390:	70617773 	.word	0x70617773
40000394:	3a6e695f 	.word	0x3a6e695f
40000398:	646f6220 	.word	0x646f6220
4000039c:	65722079 	.word	0x65722079
400003a0:	6e69616d 	.word	0x6e69616d
400003a4:	7773003d 	.word	0x7773003d
400003a8:	695f7061 	.word	0x695f7061
400003ac:	73203a6e 	.word	0x73203a6e
400003b0:	65636375 	.word	0x65636375
400003b4:	0a0d7373 	.word	0x0a0d7373
400003b8:	00000000 	.word	0x00000000

400003bc <kmain>:
400003bc:	b510      	push	{r4, lr}
400003be:	f000 f837 	bl	40000430 <hal_console_init>
400003c2:	4803      	ldr	r0, [pc, #12]	@ (400003d0 <kmain+0x14>)
400003c4:	f000 f842 	bl	4000044c <hal_console_puts>
400003c8:	f000 f8ce 	bl	40000568 <shell_run>
400003cc:	e7fe      	b.n	400003cc <kmain+0x10>
400003ce:	46c0      	nop			@ (mov r8, r8)
400003d0:	4000001c 	.word	0x4000001c

400003d4 <Reset_Handler>:
400003d4:	480f      	ldr	r0, [pc, #60]	@ (40000414 <Default_Handler+0x2>)
400003d6:	4910      	ldr	r1, [pc, #64]	@ (40000418 <Default_Handler+0x6>)
400003d8:	4a10      	ldr	r2, [pc, #64]	@ (4000041c <Default_Handler+0xa>)
400003da:	4291      	cmp	r1, r2
400003dc:	d204      	bcs.n	400003e8 <Reset_Handler+0x14>
400003de:	6803      	ldr	r3, [r0, #0]
400003e0:	600b      	str	r3, [r1, #0]
400003e2:	3004      	adds	r0, #4
400003e4:	3104      	adds	r1, #4
400003e6:	e7f8      	b.n	400003da <Reset_Handler+0x6>
400003e8:	480d      	ldr	r0, [pc, #52]	@ (40000420 <Default_Handler+0xe>)
400003ea:	490e      	ldr	r1, [pc, #56]	@ (40000424 <Default_Handler+0x12>)
400003ec:	2200      	movs	r2, #0
400003ee:	4288      	cmp	r0, r1
400003f0:	d202      	bcs.n	400003f8 <Reset_Handler+0x24>
400003f2:	6002      	str	r2, [r0, #0]
400003f4:	3004      	adds	r0, #4
400003f6:	e7fa      	b.n	400003ee <Reset_Handler+0x1a>
400003f8:	f7ff ffe0 	bl	400003bc <kmain>
400003fc:	e7fe      	b.n	400003fc <Reset_Handler+0x28>

400003fe <NMI_Handler>:
400003fe:	e7fe      	b.n	400003fe <NMI_Handler>

40000400 <HardFault_Handler>:
40000400:	4809      	ldr	r0, [pc, #36]	@ (40000428 <Default_Handler+0x16>)
40000402:	6801      	ldr	r1, [r0, #0]
40000404:	2220      	movs	r2, #32
40000406:	4211      	tst	r1, r2
40000408:	d102      	bne.n	40000410 <HardFault_Handler+0x10>
4000040a:	4b08      	ldr	r3, [pc, #32]	@ (4000042c <Default_Handler+0x1a>)
4000040c:	2421      	movs	r4, #33	@ 0x21
4000040e:	601c      	str	r4, [r3, #0]
40000410:	e7fe      	b.n	40000410 <HardFault_Handler+0x10>

40000412 <Default_Handler>:
40000412:	e7fe      	b.n	40000412 <Default_Handler>
40000414:	40000c24 	.word	0x40000c24
40000418:	40000c2c 	.word	0x40000c2c
4000041c:	40000c2c 	.word	0x40000c2c
40000420:	40000c2c 	.word	0x40000c2c
40000424:	40000c2c 	.word	0x40000c2c
40000428:	4000c018 	.word	0x4000c018
4000042c:	4000c000 	.word	0x4000c000

40000430 <hal_console_init>:
40000430:	4770      	bx	lr
	...

40000434 <hal_console_putc>:
40000434:	2320      	movs	r3, #32
40000436:	4903      	ldr	r1, [pc, #12]	@ (40000444 <hal_console_putc+0x10>)
40000438:	680a      	ldr	r2, [r1, #0]
4000043a:	421a      	tst	r2, r3
4000043c:	d1fc      	bne.n	40000438 <hal_console_putc+0x4>
4000043e:	4b02      	ldr	r3, [pc, #8]	@ (40000448 <hal_console_putc+0x14>)
40000440:	6018      	str	r0, [r3, #0]
40000442:	4770      	bx	lr
40000444:	4000c018 	.word	0x4000c018
40000448:	4000c000 	.word	0x4000c000

4000044c <hal_console_puts>:
4000044c:	b510      	push	{r4, lr}
4000044e:	0004      	movs	r4, r0
40000450:	7820      	ldrb	r0, [r4, #0]
40000452:	2800      	cmp	r0, #0
40000454:	d100      	bne.n	40000458 <hal_console_puts+0xc>
40000456:	bd10      	pop	{r4, pc}
40000458:	3401      	adds	r4, #1
4000045a:	f7ff ffeb 	bl	40000434 <hal_console_putc>
4000045e:	e7f7      	b.n	40000450 <hal_console_puts+0x4>

40000460 <hal_console_put_int>:
40000460:	b5f0      	push	{r4, r5, r6, r7, lr}
40000462:	0007      	movs	r7, r0
40000464:	b089      	sub	sp, #36	@ 0x24
40000466:	2800      	cmp	r0, #0
40000468:	d107      	bne.n	4000047a <hal_console_put_int+0x1a>
4000046a:	2230      	movs	r2, #48	@ 0x30
4000046c:	ab05      	add	r3, sp, #20
4000046e:	801a      	strh	r2, [r3, #0]
40000470:	a805      	add	r0, sp, #20
40000472:	f7ff ffeb 	bl	4000044c <hal_console_puts>
40000476:	b009      	add	sp, #36	@ 0x24
40000478:	bdf0      	pop	{r4, r5, r6, r7, pc}
4000047a:	2400      	movs	r4, #0
4000047c:	17c3      	asrs	r3, r0, #31
4000047e:	18c5      	adds	r5, r0, r3
40000480:	405d      	eors	r5, r3
40000482:	ae05      	add	r6, sp, #20
40000484:	ab04      	add	r3, sp, #16
40000486:	9401      	str	r4, [sp, #4]
40000488:	3303      	adds	r3, #3
4000048a:	3401      	adds	r4, #1
4000048c:	18e3      	adds	r3, r4, r3
4000048e:	0028      	movs	r0, r5
40000490:	210a      	movs	r1, #10
40000492:	9303      	str	r3, [sp, #12]
40000494:	9402      	str	r4, [sp, #8]
40000496:	f000 fbbf 	bl	40000c18 <__aeabi_idivmod>
4000049a:	9b03      	ldr	r3, [sp, #12]
4000049c:	3130      	adds	r1, #48	@ 0x30
4000049e:	0028      	movs	r0, r5
400004a0:	7019      	strb	r1, [r3, #0]
400004a2:	210a      	movs	r1, #10
400004a4:	f000 fad2 	bl	40000a4c <__divsi3>
400004a8:	1e05      	subs	r5, r0, #0
400004aa:	d1eb      	bne.n	40000484 <hal_console_put_int+0x24>
400004ac:	2f00      	cmp	r7, #0
400004ae:	da04      	bge.n	400004ba <hal_console_put_int+0x5a>
400004b0:	232d      	movs	r3, #45	@ 0x2d
400004b2:	9c01      	ldr	r4, [sp, #4]
400004b4:	9a02      	ldr	r2, [sp, #8]
400004b6:	3402      	adds	r4, #2
400004b8:	54b3      	strb	r3, [r6, r2]
400004ba:	2200      	movs	r2, #0
400004bc:	1933      	adds	r3, r6, r4
400004be:	701a      	strb	r2, [r3, #0]
400004c0:	1064      	asrs	r4, r4, #1
400004c2:	3b01      	subs	r3, #1
400004c4:	42a5      	cmp	r5, r4
400004c6:	d0d3      	beq.n	40000470 <hal_console_put_int+0x10>
400004c8:	7832      	ldrb	r2, [r6, #0]
400004ca:	7819      	ldrb	r1, [r3, #0]
400004cc:	3501      	adds	r5, #1
400004ce:	7031      	strb	r1, [r6, #0]
400004d0:	701a      	strb	r2, [r3, #0]
400004d2:	3601      	adds	r6, #1
400004d4:	e7f5      	b.n	400004c2 <hal_console_put_int+0x62>
	...

400004d8 <hal_console_put_hex>:
400004d8:	b530      	push	{r4, r5, lr}
400004da:	b085      	sub	sp, #20
400004dc:	466a      	mov	r2, sp
400004de:	4b0b      	ldr	r3, [pc, #44]	@ (4000050c <hal_console_put_hex+0x34>)
400004e0:	250f      	movs	r5, #15
400004e2:	8093      	strh	r3, [r2, #4]
400004e4:	231c      	movs	r3, #28
400004e6:	4c0a      	ldr	r4, [pc, #40]	@ (40000510 <hal_console_put_hex+0x38>)
400004e8:	aa01      	add	r2, sp, #4
400004ea:	0001      	movs	r1, r0
400004ec:	40d9      	lsrs	r1, r3
400004ee:	4029      	ands	r1, r5
400004f0:	5c61      	ldrb	r1, [r4, r1]
400004f2:	3b04      	subs	r3, #4
400004f4:	7091      	strb	r1, [r2, #2]
400004f6:	3201      	adds	r2, #1
400004f8:	1d19      	adds	r1, r3, #4
400004fa:	d1f6      	bne.n	400004ea <hal_console_put_hex+0x12>
400004fc:	2300      	movs	r3, #0
400004fe:	466a      	mov	r2, sp
40000500:	a801      	add	r0, sp, #4
40000502:	7393      	strb	r3, [r2, #14]
40000504:	f7ff ffa2 	bl	4000044c <hal_console_puts>
40000508:	b005      	add	sp, #20
4000050a:	bd30      	pop	{r4, r5, pc}
4000050c:	00007830 	.word	0x00007830
40000510:	40000035 	.word	0x40000035

40000514 <hal_console_getchar>:
40000514:	2310      	movs	r3, #16
40000516:	4904      	ldr	r1, [pc, #16]	@ (40000528 <hal_console_getchar+0x14>)
40000518:	680a      	ldr	r2, [r1, #0]
4000051a:	421a      	tst	r2, r3
4000051c:	d1fc      	bne.n	40000518 <hal_console_getchar+0x4>
4000051e:	4b03      	ldr	r3, [pc, #12]	@ (4000052c <hal_console_getchar+0x18>)
40000520:	6818      	ldr	r0, [r3, #0]
40000522:	b2c0      	uxtb	r0, r0
40000524:	4770      	bx	lr
40000526:	46c0      	nop			@ (mov r8, r8)
40000528:	4000c018 	.word	0x4000c018
4000052c:	4000c000 	.word	0x4000c000

40000530 <streq>:
40000530:	7803      	ldrb	r3, [r0, #0]
40000532:	2b00      	cmp	r3, #0
40000534:	d007      	beq.n	40000546 <streq+0x16>
40000536:	780a      	ldrb	r2, [r1, #0]
40000538:	429a      	cmp	r2, r3
4000053a:	d001      	beq.n	40000540 <streq+0x10>
4000053c:	2000      	movs	r0, #0
4000053e:	4770      	bx	lr
40000540:	3001      	adds	r0, #1
40000542:	3101      	adds	r1, #1
40000544:	e7f4      	b.n	40000530 <streq>
40000546:	7808      	ldrb	r0, [r1, #0]
40000548:	4243      	negs	r3, r0
4000054a:	4158      	adcs	r0, r3
4000054c:	e7f7      	b.n	4000053e <streq+0xe>

4000054e <starts>:
4000054e:	2300      	movs	r3, #0
40000550:	b510      	push	{r4, lr}
40000552:	5cca      	ldrb	r2, [r1, r3]
40000554:	2a00      	cmp	r2, #0
40000556:	d101      	bne.n	4000055c <starts+0xe>
40000558:	2001      	movs	r0, #1
4000055a:	bd10      	pop	{r4, pc}
4000055c:	5cc4      	ldrb	r4, [r0, r3]
4000055e:	3301      	adds	r3, #1
40000560:	4294      	cmp	r4, r2
40000562:	d0f6      	beq.n	40000552 <starts+0x4>
40000564:	2000      	movs	r0, #0
40000566:	e7f8      	b.n	4000055a <starts+0xc>

40000568 <shell_run>:
40000568:	b530      	push	{r4, r5, lr}
4000056a:	4845      	ldr	r0, [pc, #276]	@ (40000680 <shell_run+0x118>)
4000056c:	b0a1      	sub	sp, #132	@ 0x84
4000056e:	f7ff ff6d 	bl	4000044c <hal_console_puts>
40000572:	4844      	ldr	r0, [pc, #272]	@ (40000684 <shell_run+0x11c>)
40000574:	f7ff ff6a 	bl	4000044c <hal_console_puts>
40000578:	2400      	movs	r4, #0
4000057a:	f7ff ffcb 	bl	40000514 <hal_console_getchar>
4000057e:	280d      	cmp	r0, #13
40000580:	d120      	bne.n	400005c4 <shell_run+0x5c>
40000582:	4841      	ldr	r0, [pc, #260]	@ (40000688 <shell_run+0x120>)
40000584:	f7ff ff62 	bl	4000044c <hal_console_puts>
40000588:	0025      	movs	r5, r4
4000058a:	002b      	movs	r3, r5
4000058c:	2200      	movs	r2, #0
4000058e:	446b      	add	r3, sp
40000590:	701a      	strb	r2, [r3, #0]
40000592:	4295      	cmp	r5, r2
40000594:	dded      	ble.n	40000572 <shell_run+0xa>
40000596:	4668      	mov	r0, sp
40000598:	493c      	ldr	r1, [pc, #240]	@ (4000068c <shell_run+0x124>)
4000059a:	f7ff ffc9 	bl	40000530 <streq>
4000059e:	2800      	cmp	r0, #0
400005a0:	d02b      	beq.n	400005fa <shell_run+0x92>
400005a2:	483b      	ldr	r0, [pc, #236]	@ (40000690 <shell_run+0x128>)
400005a4:	f7ff ff52 	bl	4000044c <hal_console_puts>
400005a8:	483a      	ldr	r0, [pc, #232]	@ (40000694 <shell_run+0x12c>)
400005aa:	f7ff ff4f 	bl	4000044c <hal_console_puts>
400005ae:	483a      	ldr	r0, [pc, #232]	@ (40000698 <shell_run+0x130>)
400005b0:	f7ff ff4c 	bl	4000044c <hal_console_puts>
400005b4:	4839      	ldr	r0, [pc, #228]	@ (4000069c <shell_run+0x134>)
400005b6:	f7ff ff49 	bl	4000044c <hal_console_puts>
400005ba:	4839      	ldr	r0, [pc, #228]	@ (400006a0 <shell_run+0x138>)
400005bc:	f7ff ff46 	bl	4000044c <hal_console_puts>
400005c0:	4838      	ldr	r0, [pc, #224]	@ (400006a4 <shell_run+0x13c>)
400005c2:	e7d4      	b.n	4000056e <shell_run+0x6>
400005c4:	280a      	cmp	r0, #10
400005c6:	d0dc      	beq.n	40000582 <shell_run+0x1a>
400005c8:	287f      	cmp	r0, #127	@ 0x7f
400005ca:	d001      	beq.n	400005d0 <shell_run+0x68>
400005cc:	2808      	cmp	r0, #8
400005ce:	d106      	bne.n	400005de <shell_run+0x76>
400005d0:	2c00      	cmp	r4, #0
400005d2:	ddd2      	ble.n	4000057a <shell_run+0x12>
400005d4:	4834      	ldr	r0, [pc, #208]	@ (400006a8 <shell_run+0x140>)
400005d6:	3c01      	subs	r4, #1
400005d8:	f7ff ff38 	bl	4000044c <hal_console_puts>
400005dc:	e7cd      	b.n	4000057a <shell_run+0x12>
400005de:	0003      	movs	r3, r0
400005e0:	3b20      	subs	r3, #32
400005e2:	2b5e      	cmp	r3, #94	@ 0x5e
400005e4:	d8c9      	bhi.n	4000057a <shell_run+0x12>
400005e6:	466b      	mov	r3, sp
400005e8:	b2c0      	uxtb	r0, r0
400005ea:	1c65      	adds	r5, r4, #1
400005ec:	5518      	strb	r0, [r3, r4]
400005ee:	f7ff ff21 	bl	40000434 <hal_console_putc>
400005f2:	2d7f      	cmp	r5, #127	@ 0x7f
400005f4:	d0c9      	beq.n	4000058a <shell_run+0x22>
400005f6:	002c      	movs	r4, r5
400005f8:	e7bf      	b.n	4000057a <shell_run+0x12>
400005fa:	4668      	mov	r0, sp
400005fc:	492b      	ldr	r1, [pc, #172]	@ (400006ac <shell_run+0x144>)
400005fe:	f7ff ff97 	bl	40000530 <streq>
40000602:	2800      	cmp	r0, #0
40000604:	d004      	beq.n	40000610 <shell_run+0xa8>
40000606:	482a      	ldr	r0, [pc, #168]	@ (400006b0 <shell_run+0x148>)
40000608:	f7ff ff20 	bl	4000044c <hal_console_puts>
4000060c:	4829      	ldr	r0, [pc, #164]	@ (400006b4 <shell_run+0x14c>)
4000060e:	e7ae      	b.n	4000056e <shell_run+0x6>
40000610:	4668      	mov	r0, sp
40000612:	4929      	ldr	r1, [pc, #164]	@ (400006b8 <shell_run+0x150>)
40000614:	f7ff ff9b 	bl	4000054e <starts>
40000618:	2800      	cmp	r0, #0
4000061a:	d007      	beq.n	4000062c <shell_run+0xc4>
4000061c:	4827      	ldr	r0, [pc, #156]	@ (400006bc <shell_run+0x154>)
4000061e:	f7ff ff15 	bl	4000044c <hal_console_puts>
40000622:	a801      	add	r0, sp, #4
40000624:	f000 f85c 	bl	400006e0 <start_process>
40000628:	4825      	ldr	r0, [pc, #148]	@ (400006c0 <shell_run+0x158>)
4000062a:	e7a0      	b.n	4000056e <shell_run+0x6>
4000062c:	4668      	mov	r0, sp
4000062e:	4925      	ldr	r1, [pc, #148]	@ (400006c4 <shell_run+0x15c>)
40000630:	f7ff ff8d 	bl	4000054e <starts>
40000634:	2800      	cmp	r0, #0
40000636:	d005      	beq.n	40000644 <shell_run+0xdc>
40000638:	4820      	ldr	r0, [pc, #128]	@ (400006bc <shell_run+0x154>)
4000063a:	f7ff ff07 	bl	4000044c <hal_console_puts>
4000063e:	466b      	mov	r3, sp
40000640:	1d58      	adds	r0, r3, #5
40000642:	e7ef      	b.n	40000624 <shell_run+0xbc>
40000644:	4668      	mov	r0, sp
40000646:	4920      	ldr	r1, [pc, #128]	@ (400006c8 <shell_run+0x160>)
40000648:	f7ff ff81 	bl	4000054e <starts>
4000064c:	2800      	cmp	r0, #0
4000064e:	d009      	beq.n	40000664 <shell_run+0xfc>
40000650:	466b      	mov	r3, sp
40000652:	1d58      	adds	r0, r3, #5
40000654:	f000 f912 	bl	4000087c <swap_out>
40000658:	2800      	cmp	r0, #0
4000065a:	d101      	bne.n	40000660 <shell_run+0xf8>
4000065c:	481b      	ldr	r0, [pc, #108]	@ (400006cc <shell_run+0x164>)
4000065e:	e786      	b.n	4000056e <shell_run+0x6>
40000660:	481b      	ldr	r0, [pc, #108]	@ (400006d0 <shell_run+0x168>)
40000662:	e784      	b.n	4000056e <shell_run+0x6>
40000664:	4668      	mov	r0, sp
40000666:	491b      	ldr	r1, [pc, #108]	@ (400006d4 <shell_run+0x16c>)
40000668:	f7ff ff62 	bl	40000530 <streq>
4000066c:	2800      	cmp	r0, #0
4000066e:	d004      	beq.n	4000067a <shell_run+0x112>
40000670:	4819      	ldr	r0, [pc, #100]	@ (400006d8 <shell_run+0x170>)
40000672:	f7ff feeb 	bl	4000044c <hal_console_puts>
40000676:	b021      	add	sp, #132	@ 0x84
40000678:	bd30      	pop	{r4, r5, pc}
4000067a:	4818      	ldr	r0, [pc, #96]	@ (400006dc <shell_run+0x174>)
4000067c:	e777      	b.n	4000056e <shell_run+0x6>
4000067e:	46c0      	nop			@ (mov r8, r8)
40000680:	40000046 	.word	0x40000046
40000684:	4000006e 	.word	0x4000006e
40000688:	4000028b 	.word	0x4000028b
4000068c:	40000077 	.word	0x40000077
40000690:	4000007c 	.word	0x4000007c
40000694:	40000088 	.word	0x40000088
40000698:	400000b2 	.word	0x400000b2
4000069c:	400000e0 	.word	0x400000e0
400006a0:	40000110 	.word	0x40000110
400006a4:	40000140 	.word	0x40000140
400006a8:	40000073 	.word	0x40000073
400006ac:	40000168 	.word	0x40000168
400006b0:	40000170 	.word	0x40000170
400006b4:	40000186 	.word	0x40000186
400006b8:	4000019d 	.word	0x4000019d
400006bc:	400001a2 	.word	0x400001a2
400006c0:	400001af 	.word	0x400001af
400006c4:	400001be 	.word	0x400001be
400006c8:	400001c4 	.word	0x400001c4
400006cc:	400001ca 	.word	0x400001ca
400006d0:	400001d3 	.word	0x400001d3
400006d4:	400001e2 	.word	0x400001e2
400006d8:	400001e7 	.word	0x400001e7
400006dc:	400001ee 	.word	0x400001ee

400006e0 <start_process>:
400006e0:	b5f7      	push	{r0, r1, r2, r4, r5, r6, r7, lr}
400006e2:	2300      	movs	r3, #0
400006e4:	0004      	movs	r4, r0
400006e6:	4836      	ldr	r0, [pc, #216]	@ (400007c0 <start_process+0xe0>)
400006e8:	9300      	str	r3, [sp, #0]
400006ea:	9301      	str	r3, [sp, #4]
400006ec:	f7ff feae 	bl	4000044c <hal_console_puts>
400006f0:	4669      	mov	r1, sp
400006f2:	0020      	movs	r0, r4
400006f4:	aa01      	add	r2, sp, #4
400006f6:	f000 f8f9 	bl	400008ec <swap_in>
400006fa:	2800      	cmp	r0, #0
400006fc:	da03      	bge.n	40000706 <start_process+0x26>
400006fe:	4831      	ldr	r0, [pc, #196]	@ (400007c4 <start_process+0xe4>)
40000700:	f7ff fea4 	bl	4000044c <hal_console_puts>
40000704:	bdf7      	pop	{r0, r1, r2, r4, r5, r6, r7, pc}
40000706:	9b01      	ldr	r3, [sp, #4]
40000708:	4f2f      	ldr	r7, [pc, #188]	@ (400007c8 <start_process+0xe8>)
4000070a:	2b00      	cmp	r3, #0
4000070c:	d100      	bne.n	40000710 <start_process+0x30>
4000070e:	9701      	str	r7, [sp, #4]
40000710:	482e      	ldr	r0, [pc, #184]	@ (400007cc <start_process+0xec>)
40000712:	f7ff fe9b 	bl	4000044c <hal_console_puts>
40000716:	482e      	ldr	r0, [pc, #184]	@ (400007d0 <start_process+0xf0>)
40000718:	f7ff fe98 	bl	4000044c <hal_console_puts>
4000071c:	482d      	ldr	r0, [pc, #180]	@ (400007d4 <start_process+0xf4>)
4000071e:	f7ff fe95 	bl	4000044c <hal_console_puts>
40000722:	482d      	ldr	r0, [pc, #180]	@ (400007d8 <start_process+0xf8>)
40000724:	f7ff fe92 	bl	4000044c <hal_console_puts>
40000728:	4c2c      	ldr	r4, [pc, #176]	@ (400007dc <start_process+0xfc>)
4000072a:	0020      	movs	r0, r4
4000072c:	f7ff fed4 	bl	400004d8 <hal_console_put_hex>
40000730:	4e2b      	ldr	r6, [pc, #172]	@ (400007e0 <start_process+0x100>)
40000732:	0030      	movs	r0, r6
40000734:	f7ff fe8a 	bl	4000044c <hal_console_puts>
40000738:	482a      	ldr	r0, [pc, #168]	@ (400007e4 <start_process+0x104>)
4000073a:	f7ff fe87 	bl	4000044c <hal_console_puts>
4000073e:	1b38      	subs	r0, r7, r4
40000740:	f7ff fe8e 	bl	40000460 <hal_console_put_int>
40000744:	4828      	ldr	r0, [pc, #160]	@ (400007e8 <start_process+0x108>)
40000746:	f7ff fe81 	bl	4000044c <hal_console_puts>
4000074a:	9a01      	ldr	r2, [sp, #4]
4000074c:	9b00      	ldr	r3, [sp, #0]
4000074e:	4294      	cmp	r4, r2
40000750:	d201      	bcs.n	40000756 <start_process+0x76>
40000752:	42ba      	cmp	r2, r7
40000754:	d901      	bls.n	4000075a <start_process+0x7a>
40000756:	4825      	ldr	r0, [pc, #148]	@ (400007ec <start_process+0x10c>)
40000758:	e7d2      	b.n	40000700 <start_process+0x20>
4000075a:	2501      	movs	r5, #1
4000075c:	43ab      	bics	r3, r5
4000075e:	429c      	cmp	r4, r3
40000760:	d801      	bhi.n	40000766 <start_process+0x86>
40000762:	42bb      	cmp	r3, r7
40000764:	d301      	bcc.n	4000076a <start_process+0x8a>
40000766:	4822      	ldr	r0, [pc, #136]	@ (400007f0 <start_process+0x110>)
40000768:	e7ca      	b.n	40000700 <start_process+0x20>
4000076a:	4b22      	ldr	r3, [pc, #136]	@ (400007f4 <start_process+0x114>)
4000076c:	4822      	ldr	r0, [pc, #136]	@ (400007f8 <start_process+0x118>)
4000076e:	601c      	str	r4, [r3, #0]
40000770:	9b00      	ldr	r3, [sp, #0]
40000772:	431d      	orrs	r5, r3
40000774:	f7ff fe6a 	bl	4000044c <hal_console_puts>
40000778:	4820      	ldr	r0, [pc, #128]	@ (400007fc <start_process+0x11c>)
4000077a:	f7ff fe67 	bl	4000044c <hal_console_puts>
4000077e:	9801      	ldr	r0, [sp, #4]
40000780:	f7ff feaa 	bl	400004d8 <hal_console_put_hex>
40000784:	0030      	movs	r0, r6
40000786:	f7ff fe61 	bl	4000044c <hal_console_puts>
4000078a:	481d      	ldr	r0, [pc, #116]	@ (40000800 <start_process+0x120>)
4000078c:	f7ff fe5e 	bl	4000044c <hal_console_puts>
40000790:	0028      	movs	r0, r5
40000792:	f7ff fea1 	bl	400004d8 <hal_console_put_hex>
40000796:	0030      	movs	r0, r6
40000798:	f7ff fe58 	bl	4000044c <hal_console_puts>
4000079c:	4819      	ldr	r0, [pc, #100]	@ (40000804 <start_process+0x124>)
4000079e:	f7ff fe55 	bl	4000044c <hal_console_puts>
400007a2:	0020      	movs	r0, r4
400007a4:	f7ff fe98 	bl	400004d8 <hal_console_put_hex>
400007a8:	0030      	movs	r0, r6
400007aa:	f7ff fe4f 	bl	4000044c <hal_console_puts>
400007ae:	9b01      	ldr	r3, [sp, #4]
400007b0:	b672      	cpsid	i
400007b2:	f383 8808 	msr	MSP, r3
400007b6:	f3bf 8f6f 	isb	sy
400007ba:	4728      	bx	r5
400007bc:	4812      	ldr	r0, [pc, #72]	@ (40000808 <start_process+0x128>)
400007be:	e79f      	b.n	40000700 <start_process+0x20>
400007c0:	400001a2 	.word	0x400001a2
400007c4:	400001af 	.word	0x400001af
400007c8:	80000000 	.word	0x80000000
400007cc:	40000205 	.word	0x40000205
400007d0:	40000212 	.word	0x40000212
400007d4:	40000239 	.word	0x40000239
400007d8:	40000265 	.word	0x40000265
400007dc:	40400000 	.word	0x40400000
400007e0:	4000028b 	.word	0x4000028b
400007e4:	40000274 	.word	0x40000274
400007e8:	40000283 	.word	0x40000283
400007ec:	4000028e 	.word	0x4000028e
400007f0:	4000029d 	.word	0x4000029d
400007f4:	e000ed08 	.word	0xe000ed08
400007f8:	400002ac 	.word	0x400002ac
400007fc:	400002bd 	.word	0x400002bd
40000800:	400002c2 	.word	0x400002c2
40000804:	400002c7 	.word	0x400002c7
40000808:	400002ce 	.word	0x400002ce

4000080c <sh_open>:
4000080c:	2300      	movs	r3, #0
4000080e:	b530      	push	{r4, r5, lr}
40000810:	001a      	movs	r2, r3
40000812:	2501      	movs	r5, #1
40000814:	b085      	sub	sp, #20
40000816:	9001      	str	r0, [sp, #4]
40000818:	9102      	str	r1, [sp, #8]
4000081a:	9303      	str	r3, [sp, #12]
4000081c:	3801      	subs	r0, #1
4000081e:	0019      	movs	r1, r3
40000820:	3301      	adds	r3, #1
40000822:	5cc4      	ldrb	r4, [r0, r3]
40000824:	2c00      	cmp	r4, #0
40000826:	d107      	bne.n	40000838 <sh_open+0x2c>
40000828:	2a00      	cmp	r2, #0
4000082a:	d000      	beq.n	4000082e <sh_open+0x22>
4000082c:	9103      	str	r1, [sp, #12]
4000082e:	2001      	movs	r0, #1
40000830:	a901      	add	r1, sp, #4
40000832:	beab      	bkpt	0x00ab
40000834:	b005      	add	sp, #20
40000836:	bd30      	pop	{r4, r5, pc}
40000838:	002a      	movs	r2, r5
4000083a:	e7f0      	b.n	4000081e <sh_open+0x12>

4000083c <sh_close>:
4000083c:	b082      	sub	sp, #8
4000083e:	9001      	str	r0, [sp, #4]
40000840:	a901      	add	r1, sp, #4
40000842:	2002      	movs	r0, #2
40000844:	beab      	bkpt	0x00ab
40000846:	b002      	add	sp, #8
40000848:	4770      	bx	lr

4000084a <sh_read>:
4000084a:	b084      	sub	sp, #16
4000084c:	9001      	str	r0, [sp, #4]
4000084e:	9102      	str	r1, [sp, #8]
40000850:	9203      	str	r2, [sp, #12]
40000852:	2006      	movs	r0, #6
40000854:	a901      	add	r1, sp, #4
40000856:	beab      	bkpt	0x00ab
40000858:	b004      	add	sp, #16
4000085a:	4770      	bx	lr

4000085c <sh_write>:
4000085c:	b084      	sub	sp, #16
4000085e:	9001      	str	r0, [sp, #4]
40000860:	9102      	str	r1, [sp, #8]
40000862:	9203      	str	r2, [sp, #12]
40000864:	2005      	movs	r0, #5
40000866:	a901      	add	r1, sp, #4
40000868:	beab      	bkpt	0x00ab
4000086a:	b004      	add	sp, #16
4000086c:	4770      	bx	lr

4000086e <sh_flen>:
4000086e:	b082      	sub	sp, #8
40000870:	9001      	str	r0, [sp, #4]
40000872:	a901      	add	r1, sp, #4
40000874:	200c      	movs	r0, #12
40000876:	beab      	bkpt	0x00ab
40000878:	b002      	add	sp, #8
4000087a:	4770      	bx	lr

4000087c <swap_out>:
4000087c:	b530      	push	{r4, r5, lr}
4000087e:	4b18      	ldr	r3, [pc, #96]	@ (400008e0 <swap_out+0x64>)
40000880:	4d18      	ldr	r5, [pc, #96]	@ (400008e4 <swap_out+0x68>)
40000882:	b085      	sub	sp, #20
40000884:	1b5a      	subs	r2, r3, r5
40000886:	9200      	str	r2, [sp, #0]
40000888:	2200      	movs	r2, #0
4000088a:	2104      	movs	r1, #4
4000088c:	9201      	str	r2, [sp, #4]
4000088e:	9302      	str	r3, [sp, #8]
40000890:	9203      	str	r2, [sp, #12]
40000892:	f7ff ffbb 	bl	4000080c <sh_open>
40000896:	1e04      	subs	r4, r0, #0
40000898:	da07      	bge.n	400008aa <swap_out+0x2e>
4000089a:	4813      	ldr	r0, [pc, #76]	@ (400008e8 <swap_out+0x6c>)
4000089c:	f7ff fdd6 	bl	4000044c <hal_console_puts>
400008a0:	2501      	movs	r5, #1
400008a2:	426d      	negs	r5, r5
400008a4:	0028      	movs	r0, r5
400008a6:	b005      	add	sp, #20
400008a8:	bd30      	pop	{r4, r5, pc}
400008aa:	2210      	movs	r2, #16
400008ac:	4669      	mov	r1, sp
400008ae:	f7ff ffd5 	bl	4000085c <sh_write>
400008b2:	2800      	cmp	r0, #0
400008b4:	d004      	beq.n	400008c0 <swap_out+0x44>
400008b6:	0020      	movs	r0, r4
400008b8:	f7ff ffc0 	bl	4000083c <sh_close>
400008bc:	2502      	movs	r5, #2
400008be:	e7f0      	b.n	400008a2 <swap_out+0x26>
400008c0:	0029      	movs	r1, r5
400008c2:	0020      	movs	r0, r4
400008c4:	9a00      	ldr	r2, [sp, #0]
400008c6:	f7ff ffc9 	bl	4000085c <sh_write>
400008ca:	0005      	movs	r5, r0
400008cc:	0020      	movs	r0, r4
400008ce:	2d00      	cmp	r5, #0
400008d0:	d003      	beq.n	400008da <swap_out+0x5e>
400008d2:	f7ff ffb3 	bl	4000083c <sh_close>
400008d6:	2503      	movs	r5, #3
400008d8:	e7e3      	b.n	400008a2 <swap_out+0x26>
400008da:	f7ff ffaf 	bl	4000083c <sh_close>
400008de:	e7e1      	b.n	400008a4 <swap_out+0x28>
400008e0:	80000000 	.word	0x80000000
400008e4:	40400000 	.word	0x40400000
400008e8:	400002e7 	.word	0x400002e7

400008ec <swap_in>:
400008ec:	b5f0      	push	{r4, r5, r6, r7, lr}
400008ee:	0004      	movs	r4, r0
400008f0:	b087      	sub	sp, #28
400008f2:	4847      	ldr	r0, [pc, #284]	@ (40000a10 <swap_in+0x124>)
400008f4:	000f      	movs	r7, r1
400008f6:	9201      	str	r2, [sp, #4]
400008f8:	f7ff fda8 	bl	4000044c <hal_console_puts>
400008fc:	0020      	movs	r0, r4
400008fe:	f7ff fda5 	bl	4000044c <hal_console_puts>
40000902:	4844      	ldr	r0, [pc, #272]	@ (40000a14 <swap_in+0x128>)
40000904:	f7ff fda2 	bl	4000044c <hal_console_puts>
40000908:	0020      	movs	r0, r4
4000090a:	2100      	movs	r1, #0
4000090c:	f7ff ff7e 	bl	4000080c <sh_open>
40000910:	1e04      	subs	r4, r0, #0
40000912:	da05      	bge.n	40000920 <swap_in+0x34>
40000914:	4840      	ldr	r0, [pc, #256]	@ (40000a18 <swap_in+0x12c>)
40000916:	f7ff fd99 	bl	4000044c <hal_console_puts>
4000091a:	2501      	movs	r5, #1
4000091c:	426d      	negs	r5, r5
4000091e:	e072      	b.n	40000a06 <swap_in+0x11a>
40000920:	483e      	ldr	r0, [pc, #248]	@ (40000a1c <swap_in+0x130>)
40000922:	f7ff fd93 	bl	4000044c <hal_console_puts>
40000926:	0020      	movs	r0, r4
40000928:	f7ff fd9a 	bl	40000460 <hal_console_put_int>
4000092c:	4e3c      	ldr	r6, [pc, #240]	@ (40000a20 <swap_in+0x134>)
4000092e:	0030      	movs	r0, r6
40000930:	f7ff fd8c 	bl	4000044c <hal_console_puts>
40000934:	0020      	movs	r0, r4
40000936:	f7ff ff9a 	bl	4000086e <sh_flen>
4000093a:	0005      	movs	r5, r0
4000093c:	4839      	ldr	r0, [pc, #228]	@ (40000a24 <swap_in+0x138>)
4000093e:	f7ff fd85 	bl	4000044c <hal_console_puts>
40000942:	0028      	movs	r0, r5
40000944:	f7ff fd8c 	bl	40000460 <hal_console_put_int>
40000948:	0030      	movs	r0, r6
4000094a:	f7ff fd7f 	bl	4000044c <hal_console_puts>
4000094e:	2210      	movs	r2, #16
40000950:	a902      	add	r1, sp, #8
40000952:	0020      	movs	r0, r4
40000954:	f7ff ff79 	bl	4000084a <sh_read>
40000958:	0005      	movs	r5, r0
4000095a:	4833      	ldr	r0, [pc, #204]	@ (40000a28 <swap_in+0x13c>)
4000095c:	f7ff fd76 	bl	4000044c <hal_console_puts>
40000960:	0028      	movs	r0, r5
40000962:	f7ff fd7d 	bl	40000460 <hal_console_put_int>
40000966:	0030      	movs	r0, r6
40000968:	f7ff fd70 	bl	4000044c <hal_console_puts>
4000096c:	2d00      	cmp	r5, #0
4000096e:	d004      	beq.n	4000097a <swap_in+0x8e>
40000970:	0020      	movs	r0, r4
40000972:	f7ff ff63 	bl	4000083c <sh_close>
40000976:	2502      	movs	r5, #2
40000978:	e7d0      	b.n	4000091c <swap_in+0x30>
4000097a:	482c      	ldr	r0, [pc, #176]	@ (40000a2c <swap_in+0x140>)
4000097c:	f7ff fd66 	bl	4000044c <hal_console_puts>
40000980:	9802      	ldr	r0, [sp, #8]
40000982:	f7ff fd6d 	bl	40000460 <hal_console_put_int>
40000986:	482a      	ldr	r0, [pc, #168]	@ (40000a30 <swap_in+0x144>)
40000988:	f7ff fd60 	bl	4000044c <hal_console_puts>
4000098c:	9803      	ldr	r0, [sp, #12]
4000098e:	f7ff fda3 	bl	400004d8 <hal_console_put_hex>
40000992:	4828      	ldr	r0, [pc, #160]	@ (40000a34 <swap_in+0x148>)
40000994:	f7ff fd5a 	bl	4000044c <hal_console_puts>
40000998:	9804      	ldr	r0, [sp, #16]
4000099a:	f7ff fd9d 	bl	400004d8 <hal_console_put_hex>
4000099e:	0030      	movs	r0, r6
400009a0:	f7ff fd54 	bl	4000044c <hal_console_puts>
400009a4:	4b24      	ldr	r3, [pc, #144]	@ (40000a38 <swap_in+0x14c>)
400009a6:	4925      	ldr	r1, [pc, #148]	@ (40000a3c <swap_in+0x150>)
400009a8:	9a02      	ldr	r2, [sp, #8]
400009aa:	9300      	str	r3, [sp, #0]
400009ac:	0020      	movs	r0, r4
400009ae:	1a5b      	subs	r3, r3, r1
400009b0:	429a      	cmp	r2, r3
400009b2:	d906      	bls.n	400009c2 <swap_in+0xd6>
400009b4:	f7ff ff42 	bl	4000083c <sh_close>
400009b8:	4821      	ldr	r0, [pc, #132]	@ (40000a40 <swap_in+0x154>)
400009ba:	f7ff fd47 	bl	4000044c <hal_console_puts>
400009be:	2503      	movs	r5, #3
400009c0:	e7ac      	b.n	4000091c <swap_in+0x30>
400009c2:	f7ff ff42 	bl	4000084a <sh_read>
400009c6:	0005      	movs	r5, r0
400009c8:	481e      	ldr	r0, [pc, #120]	@ (40000a44 <swap_in+0x158>)
400009ca:	f7ff fd3f 	bl	4000044c <hal_console_puts>
400009ce:	0028      	movs	r0, r5
400009d0:	f7ff fd46 	bl	40000460 <hal_console_put_int>
400009d4:	0030      	movs	r0, r6
400009d6:	f7ff fd39 	bl	4000044c <hal_console_puts>
400009da:	0020      	movs	r0, r4
400009dc:	f7ff ff2e 	bl	4000083c <sh_close>
400009e0:	2d00      	cmp	r5, #0
400009e2:	d113      	bne.n	40000a0c <swap_in+0x120>
400009e4:	2f00      	cmp	r7, #0
400009e6:	d001      	beq.n	400009ec <swap_in+0x100>
400009e8:	9b03      	ldr	r3, [sp, #12]
400009ea:	603b      	str	r3, [r7, #0]
400009ec:	9b01      	ldr	r3, [sp, #4]
400009ee:	2b00      	cmp	r3, #0
400009f0:	d006      	beq.n	40000a00 <swap_in+0x114>
400009f2:	9b04      	ldr	r3, [sp, #16]
400009f4:	2b00      	cmp	r3, #0
400009f6:	d000      	beq.n	400009fa <swap_in+0x10e>
400009f8:	9300      	str	r3, [sp, #0]
400009fa:	9b01      	ldr	r3, [sp, #4]
400009fc:	9a00      	ldr	r2, [sp, #0]
400009fe:	601a      	str	r2, [r3, #0]
40000a00:	4811      	ldr	r0, [pc, #68]	@ (40000a48 <swap_in+0x15c>)
40000a02:	f7ff fd23 	bl	4000044c <hal_console_puts>
40000a06:	0028      	movs	r0, r5
40000a08:	b007      	add	sp, #28
40000a0a:	bdf0      	pop	{r4, r5, r6, r7, pc}
40000a0c:	2504      	movs	r5, #4
40000a0e:	e785      	b.n	4000091c <swap_in+0x30>
40000a10:	400002fd 	.word	0x400002fd
40000a14:	40000310 	.word	0x40000310
40000a18:	40000314 	.word	0x40000314
40000a1c:	4000032e 	.word	0x4000032e
40000a20:	4000028b 	.word	0x4000028b
40000a24:	4000033b 	.word	0x4000033b
40000a28:	4000034a 	.word	0x4000034a
40000a2c:	40000362 	.word	0x40000362
40000a30:	40000370 	.word	0x40000370
40000a34:	40000378 	.word	0x40000378
40000a38:	80000000 	.word	0x80000000
40000a3c:	40400000 	.word	0x40400000
40000a40:	4000037d 	.word	0x4000037d
40000a44:	40000390 	.word	0x40000390
40000a48:	400003a6 	.word	0x400003a6

40000a4c <__divsi3>:
40000a4c:	4603      	mov	r3, r0
40000a4e:	430b      	orrs	r3, r1
40000a50:	d47f      	bmi.n	40000b52 <__divsi3+0x106>
40000a52:	2200      	movs	r2, #0
40000a54:	0843      	lsrs	r3, r0, #1
40000a56:	428b      	cmp	r3, r1
40000a58:	d374      	bcc.n	40000b44 <__divsi3+0xf8>
40000a5a:	0903      	lsrs	r3, r0, #4
40000a5c:	428b      	cmp	r3, r1
40000a5e:	d35f      	bcc.n	40000b20 <__divsi3+0xd4>
40000a60:	0a03      	lsrs	r3, r0, #8
40000a62:	428b      	cmp	r3, r1
40000a64:	d344      	bcc.n	40000af0 <__divsi3+0xa4>
40000a66:	0b03      	lsrs	r3, r0, #12
40000a68:	428b      	cmp	r3, r1
40000a6a:	d328      	bcc.n	40000abe <__divsi3+0x72>
40000a6c:	0c03      	lsrs	r3, r0, #16
40000a6e:	428b      	cmp	r3, r1
40000a70:	d30d      	bcc.n	40000a8e <__divsi3+0x42>
40000a72:	22ff      	movs	r2, #255	@ 0xff
40000a74:	0209      	lsls	r1, r1, #8
40000a76:	ba12      	rev	r2, r2
40000a78:	0c03      	lsrs	r3, r0, #16
40000a7a:	428b      	cmp	r3, r1
40000a7c:	d302      	bcc.n	40000a84 <__divsi3+0x38>
40000a7e:	1212      	asrs	r2, r2, #8
40000a80:	0209      	lsls	r1, r1, #8
40000a82:	d065      	beq.n	40000b50 <__divsi3+0x104>
40000a84:	0b03      	lsrs	r3, r0, #12
40000a86:	428b      	cmp	r3, r1
40000a88:	d319      	bcc.n	40000abe <__divsi3+0x72>
40000a8a:	e000      	b.n	40000a8e <__divsi3+0x42>
40000a8c:	0a09      	lsrs	r1, r1, #8
40000a8e:	0bc3      	lsrs	r3, r0, #15
40000a90:	428b      	cmp	r3, r1
40000a92:	d301      	bcc.n	40000a98 <__divsi3+0x4c>
40000a94:	03cb      	lsls	r3, r1, #15
40000a96:	1ac0      	subs	r0, r0, r3
40000a98:	4152      	adcs	r2, r2
40000a9a:	0b83      	lsrs	r3, r0, #14
40000a9c:	428b      	cmp	r3, r1
40000a9e:	d301      	bcc.n	40000aa4 <__divsi3+0x58>
40000aa0:	038b      	lsls	r3, r1, #14
40000aa2:	1ac0      	subs	r0, r0, r3
40000aa4:	4152      	adcs	r2, r2
40000aa6:	0b43      	lsrs	r3, r0, #13
40000aa8:	428b      	cmp	r3, r1
40000aaa:	d301      	bcc.n	40000ab0 <__divsi3+0x64>
40000aac:	034b      	lsls	r3, r1, #13
40000aae:	1ac0      	subs	r0, r0, r3
40000ab0:	4152      	adcs	r2, r2
40000ab2:	0b03      	lsrs	r3, r0, #12
40000ab4:	428b      	cmp	r3, r1
40000ab6:	d301      	bcc.n	40000abc <__divsi3+0x70>
40000ab8:	030b      	lsls	r3, r1, #12
40000aba:	1ac0      	subs	r0, r0, r3
40000abc:	4152      	adcs	r2, r2
40000abe:	0ac3      	lsrs	r3, r0, #11
40000ac0:	428b      	cmp	r3, r1
40000ac2:	d301      	bcc.n	40000ac8 <__divsi3+0x7c>
40000ac4:	02cb      	lsls	r3, r1, #11
40000ac6:	1ac0      	subs	r0, r0, r3
40000ac8:	4152      	adcs	r2, r2
40000aca:	0a83      	lsrs	r3, r0, #10
40000acc:	428b      	cmp	r3, r1
40000ace:	d301      	bcc.n	40000ad4 <__divsi3+0x88>
40000ad0:	028b      	lsls	r3, r1, #10
40000ad2:	1ac0      	subs	r0, r0, r3
40000ad4:	4152      	adcs	r2, r2
40000ad6:	0a43      	lsrs	r3, r0, #9
40000ad8:	428b      	cmp	r3, r1
40000ada:	d301      	bcc.n	40000ae0 <__divsi3+0x94>
40000adc:	024b      	lsls	r3, r1, #9
40000ade:	1ac0      	subs	r0, r0, r3
40000ae0:	4152      	adcs	r2, r2
40000ae2:	0a03      	lsrs	r3, r0, #8
40000ae4:	428b      	cmp	r3, r1
40000ae6:	d301      	bcc.n	40000aec <__divsi3+0xa0>
40000ae8:	020b      	lsls	r3, r1, #8
40000aea:	1ac0      	subs	r0, r0, r3
40000aec:	4152      	adcs	r2, r2
40000aee:	d2cd      	bcs.n	40000a8c <__divsi3+0x40>
40000af0:	09c3      	lsrs	r3, r0, #7
40000af2:	428b      	cmp	r3, r1
40000af4:	d301      	bcc.n	40000afa <__divsi3+0xae>
40000af6:	01cb      	lsls	r3, r1, #7
40000af8:	1ac0      	subs	r0, r0, r3
40000afa:	4152      	adcs	r2, r2
40000afc:	0983      	lsrs	r3, r0, #6
40000afe:	428b      	cmp	r3, r1
40000b00:	d301      	bcc.n	40000b06 <__divsi3+0xba>
40000b02:	018b      	lsls	r3, r1, #6
40000b04:	1ac0      	subs	r0, r0, r3
40000b06:	4152      	adcs	r2, r2
40000b08:	0943      	lsrs	r3, r0, #5
40000b0a:	428b      	cmp	r3, r1
40000b0c:	d301      	bcc.n	40000b12 <__divsi3+0xc6>
40000b0e:	014b      	lsls	r3, r1, #5
40000b10:	1ac0      	subs	r0, r0, r3
40000b12:	4152      	adcs	r2, r2
40000b14:	0903      	lsrs	r3, r0, #4
40000b16:	428b      	cmp	r3, r1
40000b18:	d301      	bcc.n	40000b1e <__divsi3+0xd2>
40000b1a:	010b      	lsls	r3, r1, #4
40000b1c:	1ac0      	subs	r0, r0, r3
40000b1e:	4152      	adcs	r2, r2
40000b20:	08c3      	lsrs	r3, r0, #3
40000b22:	428b      	cmp	r3, r1
40000b24:	d301      	bcc.n	40000b2a <__divsi3+0xde>
40000b26:	00cb      	lsls	r3, r1, #3
40000b28:	1ac0      	subs	r0, r0, r3
40000b2a:	4152      	adcs	r2, r2
40000b2c:	0883      	lsrs	r3, r0, #2
40000b2e:	428b      	cmp	r3, r1
40000b30:	d301      	bcc.n	40000b36 <__divsi3+0xea>
40000b32:	008b      	lsls	r3, r1, #2
40000b34:	1ac0      	subs	r0, r0, r3
40000b36:	4152      	adcs	r2, r2
40000b38:	0843      	lsrs	r3, r0, #1
40000b3a:	428b      	cmp	r3, r1
40000b3c:	d301      	bcc.n	40000b42 <__divsi3+0xf6>
40000b3e:	004b      	lsls	r3, r1, #1
40000b40:	1ac0      	subs	r0, r0, r3
40000b42:	4152      	adcs	r2, r2
40000b44:	1a41      	subs	r1, r0, r1
40000b46:	d200      	bcs.n	40000b4a <__divsi3+0xfe>
40000b48:	4601      	mov	r1, r0
40000b4a:	4152      	adcs	r2, r2
40000b4c:	4610      	mov	r0, r2
40000b4e:	4770      	bx	lr
40000b50:	e05d      	b.n	40000c0e <__divsi3+0x1c2>
40000b52:	0fca      	lsrs	r2, r1, #31
40000b54:	d000      	beq.n	40000b58 <__divsi3+0x10c>
40000b56:	4249      	negs	r1, r1
40000b58:	1003      	asrs	r3, r0, #32
40000b5a:	d300      	bcc.n	40000b5e <__divsi3+0x112>
40000b5c:	4240      	negs	r0, r0
40000b5e:	4053      	eors	r3, r2
40000b60:	2200      	movs	r2, #0
40000b62:	469c      	mov	ip, r3
40000b64:	0903      	lsrs	r3, r0, #4
40000b66:	428b      	cmp	r3, r1
40000b68:	d32d      	bcc.n	40000bc6 <__divsi3+0x17a>
40000b6a:	0a03      	lsrs	r3, r0, #8
40000b6c:	428b      	cmp	r3, r1
40000b6e:	d312      	bcc.n	40000b96 <__divsi3+0x14a>
40000b70:	22fc      	movs	r2, #252	@ 0xfc
40000b72:	0189      	lsls	r1, r1, #6
40000b74:	ba12      	rev	r2, r2
40000b76:	0a03      	lsrs	r3, r0, #8
40000b78:	428b      	cmp	r3, r1
40000b7a:	d30c      	bcc.n	40000b96 <__divsi3+0x14a>
40000b7c:	0189      	lsls	r1, r1, #6
40000b7e:	1192      	asrs	r2, r2, #6
40000b80:	428b      	cmp	r3, r1
40000b82:	d308      	bcc.n	40000b96 <__divsi3+0x14a>
40000b84:	0189      	lsls	r1, r1, #6
40000b86:	1192      	asrs	r2, r2, #6
40000b88:	428b      	cmp	r3, r1
40000b8a:	d304      	bcc.n	40000b96 <__divsi3+0x14a>
40000b8c:	0189      	lsls	r1, r1, #6
40000b8e:	d03a      	beq.n	40000c06 <__divsi3+0x1ba>
40000b90:	1192      	asrs	r2, r2, #6
40000b92:	e000      	b.n	40000b96 <__divsi3+0x14a>
40000b94:	0989      	lsrs	r1, r1, #6
40000b96:	09c3      	lsrs	r3, r0, #7
40000b98:	428b      	cmp	r3, r1
40000b9a:	d301      	bcc.n	40000ba0 <__divsi3+0x154>
40000b9c:	01cb      	lsls	r3, r1, #7
40000b9e:	1ac0      	subs	r0, r0, r3
40000ba0:	4152      	adcs	r2, r2
40000ba2:	0983      	lsrs	r3, r0, #6
40000ba4:	428b      	cmp	r3, r1
40000ba6:	d301      	bcc.n	40000bac <__divsi3+0x160>
40000ba8:	018b      	lsls	r3, r1, #6
40000baa:	1ac0      	subs	r0, r0, r3
40000bac:	4152      	adcs	r2, r2
40000bae:	0943      	lsrs	r3, r0, #5
40000bb0:	428b      	cmp	r3, r1
40000bb2:	d301      	bcc.n	40000bb8 <__divsi3+0x16c>
40000bb4:	014b      	lsls	r3, r1, #5
40000bb6:	1ac0      	subs	r0, r0, r3
40000bb8:	4152      	adcs	r2, r2
40000bba:	0903      	lsrs	r3, r0, #4
40000bbc:	428b      	cmp	r3, r1
40000bbe:	d301      	bcc.n	40000bc4 <__divsi3+0x178>
40000bc0:	010b      	lsls	r3, r1, #4
40000bc2:	1ac0      	subs	r0, r0, r3
40000bc4:	4152      	adcs	r2, r2
40000bc6:	08c3      	lsrs	r3, r0, #3
40000bc8:	428b      	cmp	r3, r1
40000bca:	d301      	bcc.n	40000bd0 <__divsi3+0x184>
40000bcc:	00cb      	lsls	r3, r1, #3
40000bce:	1ac0      	subs	r0, r0, r3
40000bd0:	4152      	adcs	r2, r2
40000bd2:	0883      	lsrs	r3, r0, #2
40000bd4:	428b      	cmp	r3, r1
40000bd6:	d301      	bcc.n	40000bdc <__divsi3+0x190>
40000bd8:	008b      	lsls	r3, r1, #2
40000bda:	1ac0      	subs	r0, r0, r3
40000bdc:	4152      	adcs	r2, r2
40000bde:	d2d9      	bcs.n	40000b94 <__divsi3+0x148>
40000be0:	0843      	lsrs	r3, r0, #1
40000be2:	428b      	cmp	r3, r1
40000be4:	d301      	bcc.n	40000bea <__divsi3+0x19e>
40000be6:	004b      	lsls	r3, r1, #1
40000be8:	1ac0      	subs	r0, r0, r3
40000bea:	4152      	adcs	r2, r2
40000bec:	1a41      	subs	r1, r0, r1
40000bee:	d200      	bcs.n	40000bf2 <__divsi3+0x1a6>
40000bf0:	4601      	mov	r1, r0
40000bf2:	4663      	mov	r3, ip
40000bf4:	4152      	adcs	r2, r2
40000bf6:	105b      	asrs	r3, r3, #1
40000bf8:	4610      	mov	r0, r2
40000bfa:	d301      	bcc.n	40000c00 <__divsi3+0x1b4>
40000bfc:	4240      	negs	r0, r0
40000bfe:	2b00      	cmp	r3, #0
40000c00:	d500      	bpl.n	40000c04 <__divsi3+0x1b8>
40000c02:	4249      	negs	r1, r1
40000c04:	4770      	bx	lr
40000c06:	4663      	mov	r3, ip
40000c08:	105b      	asrs	r3, r3, #1
40000c0a:	d300      	bcc.n	40000c0e <__divsi3+0x1c2>
40000c0c:	4240      	negs	r0, r0
40000c0e:	b501      	push	{r0, lr}
40000c10:	2000      	movs	r0, #0
40000c12:	f000 f805 	bl	40000c20 <__aeabi_idiv0>
40000c16:	bd02      	pop	{r1, pc}

40000c18 <__aeabi_idivmod>:
40000c18:	2900      	cmp	r1, #0
40000c1a:	d0f8      	beq.n	40000c0e <__divsi3+0x1c2>
40000c1c:	e716      	b.n	40000a4c <__divsi3>
40000c1e:	4770      	bx	lr

40000c20 <__aeabi_idiv0>:
40000c20:	4770      	bx	lr
40000c22:	46c0      	nop			@ (mov r8, r8)

Disassembly of section .init:

40000c24 <_init>:
40000c24:	b5f8      	push	{r3, r4, r5, r6, r7, lr}
40000c26:	46c0      	nop			@ (mov r8, r8)

Disassembly of section .fini:

40000c28 <_fini>:
40000c28:	b5f8      	push	{r3, r4, r5, r6, r7, lr}
40000c2a:	46c0      	nop			@ (mov r8, r8)
